target datalayout = "e-m:e-p270:32:32-p271:32:32-p272:64:64-i64:64-i128:128-f80:128-n8:16:32:64-S128"
target triple = "x86_64-pc-linux-gnu"

%struct.UFILE = type { ptr, ptr, ptr, %struct.u_localized_string, [1024 x i16], i8, i32 }
%struct.u_localized_string = type { ptr, ptr, ptr, %struct.ULocaleBundle }
%struct.ULocaleBundle = type { ptr, [5 x ptr], i8 }
%struct.UFILETranslitBuffer = type { ptr, i32, i32, i32, ptr }

; Function Attrs: mustprogress uwtable
define void @_Z23ufile_flush_translit_77P5UFILE(ptr noundef %0) #0 {
  %2 = alloca ptr, align 8
  store ptr %0, ptr %2, align 8, !tbaa !3
  %3 = load ptr, ptr %2, align 8, !tbaa !3
  %4 = icmp ne ptr %3, null
  br i1 %4, label %5, label %10

5:                                                ; preds = %1
  %6 = load ptr, ptr %2, align 8, !tbaa !3
  %7 = getelementptr inbounds nuw %struct.UFILE, ptr %6, i32 0, i32 0
  %8 = load ptr, ptr %7, align 8, !tbaa !15
  %9 = icmp ne ptr %8, null
  br i1 %9, label %11, label %10

10:                                               ; preds = %5, %1
  br label %14

11:                                               ; preds = %5
  %12 = load ptr, ptr %2, align 8, !tbaa !3
  %13 = call i32 @u_file_write_flush_77(ptr noundef null, i32 noundef 0, ptr noundef %12, i8 noundef signext 0, i8 noundef signext 1)
  br label %14

14:                                               ; preds = %11, %10
  ret void
}

; Function Attrs: inlinehint mustprogress nounwind uwtable
define internal noundef signext i8 @_ZL9U_FAILURE10UErrorCode(i32 noundef %0) #2 {
  %2 = alloca i32, align 4
  store i32 %0, ptr %2, align 4, !tbaa !13
  %3 = load i32, ptr %2, align 4, !tbaa !13
  %4 = icmp sgt i32 %3, 0
  %5 = zext i1 %4 to i8
  ret i8 %5
}

; Function Attrs: mustprogress uwtable
define ptr @u_fsettransliterator_77(ptr noundef %0, i32 noundef %1, ptr noundef %2, ptr noundef %3) #0 {
  %5 = alloca ptr, align 8
  %6 = alloca ptr, align 8
  %7 = alloca i32, align 4
  %8 = alloca ptr, align 8
  %9 = alloca ptr, align 8
  %10 = alloca ptr, align 8
  %11 = alloca i32, align 4
  store ptr %0, ptr %6, align 8, !tbaa !3
  store i32 %1, ptr %7, align 4, !tbaa !8
  store ptr %2, ptr %8, align 8, !tbaa !10
  store ptr %3, ptr %9, align 8, !tbaa !12
  call void @llvm.lifetime.start.p0(i64 8, ptr %10) #10
  store ptr null, ptr %10, align 8, !tbaa !10
  %12 = load ptr, ptr %9, align 8, !tbaa !12
  %13 = load i32, ptr %12, align 4, !tbaa !13
  %14 = call noundef signext i8 @_ZL9U_FAILURE10UErrorCode(i32 noundef %13)
  %15 = icmp ne i8 %14, 0
  br i1 %15, label %16, label %18

16:                                               ; preds = %4
  %17 = load ptr, ptr %8, align 8, !tbaa !10
  store ptr %17, ptr %5, align 8
  store i32 1, ptr %11, align 4
  br label %108

18:                                               ; preds = %4
  %19 = load ptr, ptr %6, align 8, !tbaa !3
  %20 = icmp ne ptr %19, null
  br i1 %20, label %24, label %21

21:                                               ; preds = %18
  %22 = load ptr, ptr %9, align 8, !tbaa !12
  store i32 1, ptr %22, align 4, !tbaa !13
  %23 = load ptr, ptr %8, align 8, !tbaa !10
  store ptr %23, ptr %5, align 8
  store i32 1, ptr %11, align 4
  br label %108

24:                                               ; preds = %18
  %25 = load i32, ptr %7, align 4, !tbaa !8
  %26 = and i32 %25, 1
  %27 = icmp ne i32 %26, 0
  br i1 %27, label %28, label %31

28:                                               ; preds = %24
  %29 = load ptr, ptr %9, align 8, !tbaa !12
  store i32 16, ptr %29, align 4, !tbaa !13
  %30 = load ptr, ptr %8, align 8, !tbaa !10
  store ptr %30, ptr %5, align 8
  store i32 1, ptr %11, align 4
  br label %108

31:                                               ; preds = %24
  %32 = load ptr, ptr %8, align 8, !tbaa !10
  %33 = icmp eq ptr %32, null
  br i1 %33, label %34, label %60

34:                                               ; preds = %31
  %35 = load ptr, ptr %6, align 8, !tbaa !3
  %36 = getelementptr inbounds nuw %struct.UFILE, ptr %35, i32 0, i32 0
  %37 = load ptr, ptr %36, align 8, !tbaa !15
  %38 = icmp ne ptr %37, null
  br i1 %38, label %39, label %59

39:                                               ; preds = %34
  %40 = load ptr, ptr %6, align 8, !tbaa !3
  %41 = getelementptr inbounds nuw %struct.UFILE, ptr %40, i32 0, i32 0
  %42 = load ptr, ptr %41, align 8, !tbaa !15
  %43 = getelementptr inbounds nuw %struct.UFILETranslitBuffer, ptr %42, i32 0, i32 4
  %44 = load ptr, ptr %43, align 8, !tbaa !24
  store ptr %44, ptr %10, align 8, !tbaa !10
  %45 = load ptr, ptr %6, align 8, !tbaa !3
  %46 = getelementptr inbounds nuw %struct.UFILE, ptr %45, i32 0, i32 0
  %47 = load ptr, ptr %46, align 8, !tbaa !15
  %48 = getelementptr inbounds nuw %struct.UFILETranslitBuffer, ptr %47, i32 0, i32 0
  %49 = load ptr, ptr %48, align 8, !tbaa !26
  call void @uprv_free_77(ptr noundef %49)
  %50 = load ptr, ptr %6, align 8, !tbaa !3
  %51 = getelementptr inbounds nuw %struct.UFILE, ptr %50, i32 0, i32 0
  %52 = load ptr, ptr %51, align 8, !tbaa !15
  %53 = getelementptr inbounds nuw %struct.UFILETranslitBuffer, ptr %52, i32 0, i32 0
  store ptr null, ptr %53, align 8, !tbaa !26
  %54 = load ptr, ptr %6, align 8, !tbaa !3
  %55 = getelementptr inbounds nuw %struct.UFILE, ptr %54, i32 0, i32 0
  %56 = load ptr, ptr %55, align 8, !tbaa !15
  call void @uprv_free_77(ptr noundef %56)
  %57 = load ptr, ptr %6, align 8, !tbaa !3
  %58 = getelementptr inbounds nuw %struct.UFILE, ptr %57, i32 0, i32 0
  store ptr null, ptr %58, align 8, !tbaa !15
  br label %59

59:                                               ; preds = %39, %34
  br label %106

60:                                               ; preds = %31
  %61 = load ptr, ptr %6, align 8, !tbaa !3
  %62 = getelementptr inbounds nuw %struct.UFILE, ptr %61, i32 0, i32 0
  %63 = load ptr, ptr %62, align 8, !tbaa !15
  %64 = icmp eq ptr %63, null
  br i1 %64, label %65, label %93

65:                                               ; preds = %60
  %66 = call noalias ptr @uprv_malloc_77(i64 noundef 32) #11
  %67 = load ptr, ptr %6, align 8, !tbaa !3
  %68 = getelementptr inbounds nuw %struct.UFILE, ptr %67, i32 0, i32 0
  store ptr %66, ptr %68, align 8, !tbaa !15
  %69 = load ptr, ptr %6, align 8, !tbaa !3
  %70 = getelementptr inbounds nuw %struct.UFILE, ptr %69, i32 0, i32 0
  %71 = load ptr, ptr %70, align 8, !tbaa !15
  %72 = icmp ne ptr %71, null
  br i1 %72, label %76, label %73

73:                                               ; preds = %65
  %74 = load ptr, ptr %9, align 8, !tbaa !12
  store i32 7, ptr %74, align 4, !tbaa !13
  %75 = load ptr, ptr %8, align 8, !tbaa !10
  store ptr %75, ptr %5, align 8
  store i32 1, ptr %11, align 4
  br label %108

76:                                               ; preds = %65
  %77 = load ptr, ptr %6, align 8, !tbaa !3
  %78 = getelementptr inbounds nuw %struct.UFILE, ptr %77, i32 0, i32 0
  %79 = load ptr, ptr %78, align 8, !tbaa !15
  %80 = getelementptr inbounds nuw %struct.UFILETranslitBuffer, ptr %79, i32 0, i32 1
  store i32 0, ptr %80, align 8, !tbaa !27
  %81 = load ptr, ptr %6, align 8, !tbaa !3
  %82 = getelementptr inbounds nuw %struct.UFILE, ptr %81, i32 0, i32 0
  %83 = load ptr, ptr %82, align 8, !tbaa !15
  %84 = getelementptr inbounds nuw %struct.UFILETranslitBuffer, ptr %83, i32 0, i32 3
  store i32 0, ptr %84, align 8, !tbaa !28
  %85 = load ptr, ptr %6, align 8, !tbaa !3
  %86 = getelementptr inbounds nuw %struct.UFILE, ptr %85, i32 0, i32 0
  %87 = load ptr, ptr %86, align 8, !tbaa !15
  %88 = getelementptr inbounds nuw %struct.UFILETranslitBuffer, ptr %87, i32 0, i32 2
  store i32 0, ptr %88, align 4, !tbaa !29
  %89 = load ptr, ptr %6, align 8, !tbaa !3
  %90 = getelementptr inbounds nuw %struct.UFILE, ptr %89, i32 0, i32 0
  %91 = load ptr, ptr %90, align 8, !tbaa !15
  %92 = getelementptr inbounds nuw %struct.UFILETranslitBuffer, ptr %91, i32 0, i32 0
  store ptr null, ptr %92, align 8, !tbaa !26
  br label %100

93:                                               ; preds = %60
  %94 = load ptr, ptr %6, align 8, !tbaa !3
  %95 = getelementptr inbounds nuw %struct.UFILE, ptr %94, i32 0, i32 0
  %96 = load ptr, ptr %95, align 8, !tbaa !15
  %97 = getelementptr inbounds nuw %struct.UFILETranslitBuffer, ptr %96, i32 0, i32 4
  %98 = load ptr, ptr %97, align 8, !tbaa !24
  store ptr %98, ptr %10, align 8, !tbaa !10
  %99 = load ptr, ptr %6, align 8, !tbaa !3
  call void @_Z23ufile_flush_translit_77P5UFILE(ptr noundef %99)
  br label %100

100:                                              ; preds = %93, %76
  %101 = load ptr, ptr %8, align 8, !tbaa !10
  %102 = load ptr, ptr %6, align 8, !tbaa !3
  %103 = getelementptr inbounds nuw %struct.UFILE, ptr %102, i32 0, i32 0
  %104 = load ptr, ptr %103, align 8, !tbaa !15
  %105 = getelementptr inbounds nuw %struct.UFILETranslitBuffer, ptr %104, i32 0, i32 4
  store ptr %101, ptr %105, align 8, !tbaa !24
  br label %106

106:                                              ; preds = %100, %59
  %107 = load ptr, ptr %10, align 8, !tbaa !10
  store ptr %107, ptr %5, align 8
  store i32 1, ptr %11, align 4
  br label %108

108:                                              ; preds = %106, %73, %28, %21, %16
  call void @llvm.lifetime.end.p0(i64 8, ptr %10) #10
  %109 = load ptr, ptr %5, align 8
  ret ptr %109
}