; Function Attrs: mustprogress uwtable
define ptr @u_fsettransliterator_77(ptr noundef %0, i32 noundef %1, ptr noundef %2, ptr noundef captures(none) %3) local_unnamed_addr #0 {
  %5 = load i32, ptr %3, align 4, !tbaa !3
  %6 = icmp slt i32 %5, 1
  br i1 %6, label %7, label %32

7:                                                ; preds = %4
  %.not35 = icmp eq ptr %0, null
  br i1 %.not35, label %8, label %9

8:                                                ; preds = %7
  store i32 1, ptr %3, align 4, !tbaa !3
  br label %32

9:                                                ; preds = %7
  %10 = and i32 %1, 1
  %.not36 = icmp eq i32 %10, 0
  br i1 %.not36, label %12, label %11

11:                                               ; preds = %9
  store i32 16, ptr %3, align 4, !tbaa !3
  br label %32

12:                                               ; preds = %9
  %13 = icmp eq ptr %2, null
  %14 = load ptr, ptr %0, align 8, !tbaa !7
  %.not38 = icmp eq ptr %14, null
  br i1 %13, label %15, label %21

15:                                               ; preds = %12
  br i1 %.not38, label %32, label %16

16:                                               ; preds = %15
  %17 = getelementptr inbounds nuw i8, ptr %14, i64 24
  %18 = load ptr, ptr %17, align 8, !tbaa !17
  %19 = load ptr, ptr %14, align 8, !tbaa !20
  tail call void @uprv_free_77(ptr noundef %19)
  %20 = load ptr, ptr %0, align 8, !tbaa !7
  store ptr null, ptr %20, align 8, !tbaa !20
  tail call void @uprv_free_77(ptr noundef nonnull %20)
  store ptr null, ptr %0, align 8, !tbaa !7
  br label %32

21:                                               ; preds = %12
  br i1 %.not38, label %22, label %_Z23ufile_flush_translit_77P5UFILE.exit

22:                                               ; preds = %21
  %23 = tail call noalias dereferenceable_or_null(32) ptr @uprv_malloc_77(i64 noundef 32) #11
  store ptr %23, ptr %0, align 8, !tbaa !7
  %.not37 = icmp eq ptr %23, null
  br i1 %.not37, label %24, label %25

24:                                               ; preds = %22
  store i32 7, ptr %3, align 4, !tbaa !3
  br label %32

25:                                               ; preds = %22
  tail call void @llvm.memset.p0.i64(ptr noundef nonnull align 8 dereferenceable(20) %23, i8 0, i64 20, i1 false)
  br label %29

_Z23ufile_flush_translit_77P5UFILE.exit:          ; preds = %21
  %26 = getelementptr inbounds nuw i8, ptr %14, i64 24
  %27 = load ptr, ptr %26, align 8, !tbaa !17
  %28 = tail call i32 @u_file_write_flush_77(ptr noundef null, i32 noundef 0, ptr noundef nonnull %0, i8 noundef signext 0, i8 noundef signext 1)
  %.pre = load ptr, ptr %0, align 8, !tbaa !7
  br label %29

29:                                               ; preds = %_Z23ufile_flush_translit_77P5UFILE.exit, %25
  %30 = phi ptr [ %23, %25 ], [ %.pre, %_Z23ufile_flush_translit_77P5UFILE.exit ]
  %.1 = phi ptr [ null, %25 ], [ %27, %_Z23ufile_flush_translit_77P5UFILE.exit ]
  %31 = getelementptr inbounds nuw i8, ptr %30, i64 24
  store ptr %2, ptr %31, align 8, !tbaa !17
  br label %32

32:                                               ; preds = %29, %16, %15, %4, %24, %11, %8
  %.029 = phi ptr [ %2, %11 ], [ %2, %24 ], [ %2, %8 ], [ %2, %4 ], [ %18, %16 ], [ null, %15 ], [ %.1, %29 ]
  ret ptr %.029
}